target datalayout = "e-m:e-p270:32:32-p271:32:32-p272:64:64-i64:64-i128:128-f80:128-n8:16:32:64-S128"
target triple = "x86_64-pc-linux-gnu"

%struct.UConverterSharedData = type { i32, i32, ptr, ptr, i8, i8, ptr, i32, %struct.UConverterMBCSTable }
%struct.UConverterMBCSTable = type { i8, i8, i8, i32, ptr, ptr, ptr, ptr, ptr, ptr, [64 x i16], ptr, ptr, i32, i8, i8, i8, i16, i32, ptr, ptr, ptr, ptr }
%struct.UConverterLoadArgs = type { i32, i32, i8, i8, i16, i32, ptr, ptr, ptr }

@_ZL21SHARED_DATA_HASHTABLE = internal global ptr null, align 8

; Function Attrs: mustprogress uwtable
define internal noundef ptr @_ZL27ucnv_getSharedConverterDataPKc(ptr noundef %0) #0 {
  %2 = alloca ptr, align 8
  %3 = alloca ptr, align 8
  %4 = alloca ptr, align 8
  store ptr %0, ptr %3, align 8, !tbaa !31
  %5 = load ptr, ptr @_ZL21SHARED_DATA_HASHTABLE, align 8, !tbaa !3
  %6 = icmp eq ptr %5, null
  br i1 %6, label %7, label %8

7:                                                ; preds = %1
  store ptr null, ptr %2, align 8
  br label %13

8:                                                ; preds = %1
  call void @llvm.lifetime.start.p0(i64 8, ptr %4) #12
  %9 = load ptr, ptr @_ZL21SHARED_DATA_HASHTABLE, align 8, !tbaa !3
  %10 = load ptr, ptr %3, align 8, !tbaa !31
  %11 = call ptr @uhash_get_77(ptr noundef %9, ptr noundef %10)
  store ptr %11, ptr %4, align 8, !tbaa !18
  %12 = load ptr, ptr %4, align 8, !tbaa !18
  store ptr %12, ptr %2, align 8
  call void @llvm.lifetime.end.p0(i64 8, ptr %4) #12
  br label %13

13:                                               ; preds = %8, %7
  %14 = load ptr, ptr %2, align 8
  ret ptr %14
}

; Function Attrs: inlinehint mustprogress nounwind uwtable
define internal noundef signext i8 @_ZL9U_FAILURE10UErrorCode(i32 noundef %0) #3 {
  %2 = alloca i32, align 4
  store i32 %0, ptr %2, align 4, !tbaa !9
  %3 = load i32, ptr %2, align 4, !tbaa !9
  %4 = icmp sgt i32 %3, 0
  %5 = zext i1 %4 to i8
  ret i8 %5
}

; Function Attrs: mustprogress uwtable
define ptr @ucnv_load_77(ptr noundef %0, ptr noundef %1) #0 {
  %3 = alloca ptr, align 8
  %4 = alloca ptr, align 8
  %5 = alloca ptr, align 8
  %6 = alloca ptr, align 8
  %7 = alloca i32, align 4
  store ptr %0, ptr %4, align 8, !tbaa !8
  store ptr %1, ptr %5, align 8, !tbaa !8
  call void @llvm.lifetime.start.p0(i64 8, ptr %6) #12
  %8 = load ptr, ptr %5, align 8, !tbaa !8
  %9 = icmp eq ptr %8, null
  br i1 %9, label %15, label %10

10:                                               ; preds = %2
  %11 = load ptr, ptr %5, align 8, !tbaa !8
  %12 = load i32, ptr %11, align 4, !tbaa !9
  %13 = call noundef signext i8 @_ZL9U_FAILURE10UErrorCode(i32 noundef %12)
  %14 = icmp ne i8 %13, 0
  br i1 %14, label %15, label %16

15:                                               ; preds = %10, %2
  store ptr null, ptr %3, align 8
  store i32 1, ptr %7, align 4
  br label %67

16:                                               ; preds = %10
  %17 = load ptr, ptr %4, align 8, !tbaa !8
  %18 = getelementptr inbounds nuw %struct.UConverterLoadArgs, ptr %17, i32 0, i32 6
  %19 = load ptr, ptr %18, align 8, !tbaa !11
  %20 = icmp ne ptr %19, null
  br i1 %20, label %21, label %32

21:                                               ; preds = %16
  %22 = load ptr, ptr %4, align 8, !tbaa !8
  %23 = getelementptr inbounds nuw %struct.UConverterLoadArgs, ptr %22, i32 0, i32 6
  %24 = load ptr, ptr %23, align 8, !tbaa !11
  %25 = load i8, ptr %24, align 1, !tbaa !16
  %26 = sext i8 %25 to i32
  %27 = icmp ne i32 %26, 0
  br i1 %27, label %28, label %32

28:                                               ; preds = %21
  %29 = load ptr, ptr %4, align 8, !tbaa !8
  %30 = load ptr, ptr %5, align 8, !tbaa !8
  %31 = call noundef ptr @_ZL23createConverterFromFileP18UConverterLoadArgsP10UErrorCode(ptr noundef %29, ptr noundef %30)
  store ptr %31, ptr %3, align 8
  store i32 1, ptr %7, align 4
  br label %67

32:                                               ; preds = %21, %16
  %33 = load ptr, ptr %4, align 8, !tbaa !8
  %34 = getelementptr inbounds nuw %struct.UConverterLoadArgs, ptr %33, i32 0, i32 7
  %35 = load ptr, ptr %34, align 8, !tbaa !17
  %36 = call noundef ptr @_ZL27ucnv_getSharedConverterDataPKc(ptr noundef %35)
  store ptr %36, ptr %6, align 8, !tbaa !18
  %37 = load ptr, ptr %6, align 8, !tbaa !18
  %38 = icmp eq ptr %37, null
  br i1 %38, label %39, label %60

39:                                               ; preds = %32
  %40 = load ptr, ptr %4, align 8, !tbaa !8
  %41 = load ptr, ptr %5, align 8, !tbaa !8
  %42 = call noundef ptr @_ZL23createConverterFromFileP18UConverterLoadArgsP10UErrorCode(ptr noundef %40, ptr noundef %41)
  store ptr %42, ptr %6, align 8, !tbaa !18
  %43 = load ptr, ptr %5, align 8, !tbaa !8
  %44 = load i32, ptr %43, align 4, !tbaa !9
  %45 = call noundef signext i8 @_ZL9U_FAILURE10UErrorCode(i32 noundef %44)
  %46 = icmp ne i8 %45, 0
  br i1 %46, label %50, label %47

47:                                               ; preds = %39
  %48 = load ptr, ptr %6, align 8, !tbaa !18
  %49 = icmp eq ptr %48, null
  br i1 %49, label %50, label %51

50:                                               ; preds = %47, %39
  store ptr null, ptr %3, align 8
  store i32 1, ptr %7, align 4
  br label %67

51:                                               ; preds = %47
  %52 = load ptr, ptr %4, align 8, !tbaa !8
  %53 = getelementptr inbounds nuw %struct.UConverterLoadArgs, ptr %52, i32 0, i32 2
  %54 = load i8, ptr %53, align 8, !tbaa !20
  %55 = icmp ne i8 %54, 0
  br i1 %55, label %58, label %56

56:                                               ; preds = %51
  %57 = load ptr, ptr %6, align 8, !tbaa !18
  call void @_ZL23ucnv_shareConverterDataP20UConverterSharedData(ptr noundef %57)
  br label %58

58:                                               ; preds = %56, %51
  br label %59

59:                                               ; preds = %58
  br label %65

60:                                               ; preds = %32
  %61 = load ptr, ptr %6, align 8, !tbaa !18
  %62 = getelementptr inbounds nuw %struct.UConverterSharedData, ptr %61, i32 0, i32 1
  %63 = load i32, ptr %62, align 4, !tbaa !21
  %64 = add i32 %63, 1
  store i32 %64, ptr %62, align 4, !tbaa !21
  br label %65

65:                                               ; preds = %60, %59
  %66 = load ptr, ptr %6, align 8, !tbaa !18
  store ptr %66, ptr %3, align 8
  store i32 1, ptr %7, align 4
  br label %67

67:                                               ; preds = %65, %50, %28, %15
  call void @llvm.lifetime.end.p0(i64 8, ptr %6) #12
  %68 = load ptr, ptr %3, align 8
  ret ptr %68
}