; Function Attrs: mustprogress uwtable
define ptr @ucnv_load_77(ptr noundef %0, ptr noundef %1) local_unnamed_addr #0 {
  %3 = icmp eq ptr %1, null
  br i1 %3, label %33, label %4

4:                                                ; preds = %2
  %5 = load i32, ptr %1, align 4, !tbaa !13
  %6 = icmp slt i32 %5, 1
  br i1 %6, label %7, label %33

7:                                                ; preds = %4
  %8 = getelementptr inbounds nuw i8, ptr %0, i64 16
  %9 = load ptr, ptr %8, align 8, !tbaa !15
  %.not23 = icmp eq ptr %9, null
  br i1 %.not23, label %14, label %10

10:                                               ; preds = %7
  %11 = load i8, ptr %9, align 1, !tbaa !19
  %.not24 = icmp eq i8 %11, 0
  br i1 %.not24, label %14, label %12

12:                                               ; preds = %10
  %13 = tail call fastcc noundef ptr @_ZL23createConverterFromFileP18UConverterLoadArgsP10UErrorCode(ptr noundef nonnull %0, ptr noundef nonnull %1)
  br label %33

14:                                               ; preds = %10, %7
  %15 = load ptr, ptr @_ZL21SHARED_DATA_HASHTABLE, align 8, !tbaa !3
  %16 = icmp eq ptr %15, null
  br i1 %16, label %_ZL27ucnv_getSharedConverterDataPKc.exit.thread, label %_ZL27ucnv_getSharedConverterDataPKc.exit

_ZL27ucnv_getSharedConverterDataPKc.exit:         ; preds = %14
  %17 = getelementptr inbounds nuw i8, ptr %0, i64 24
  %18 = load ptr, ptr %17, align 8, !tbaa !20
  %19 = tail call ptr @uhash_get_77(ptr noundef nonnull %15, ptr noundef %18)
  %20 = icmp eq ptr %19, null
  br i1 %20, label %_ZL27ucnv_getSharedConverterDataPKc.exit.thread, label %29

_ZL27ucnv_getSharedConverterDataPKc.exit.thread:  ; preds = %14, %_ZL27ucnv_getSharedConverterDataPKc.exit
  %21 = tail call fastcc noundef ptr @_ZL23createConverterFromFileP18UConverterLoadArgsP10UErrorCode(ptr noundef nonnull %0, ptr noundef nonnull %1)
  %22 = load i32, ptr %1, align 4, !tbaa !13
  %23 = icmp sgt i32 %22, 0
  %24 = icmp eq ptr %21, null
  %or.cond = or i1 %24, %23
  br i1 %or.cond, label %33, label %25

25:                                               ; preds = %_ZL27ucnv_getSharedConverterDataPKc.exit.thread
  %26 = getelementptr inbounds nuw i8, ptr %0, i64 8
  %27 = load i8, ptr %26, align 8, !tbaa !21
  %.not25 = icmp eq i8 %27, 0
  br i1 %.not25, label %28, label %33

28:                                               ; preds = %25
  tail call fastcc void @_ZL23ucnv_shareConverterDataP20UConverterSharedData(ptr noundef %21)
  br label %33

29:                                               ; preds = %_ZL27ucnv_getSharedConverterDataPKc.exit
  %30 = getelementptr inbounds nuw i8, ptr %19, i64 4
  %31 = load i32, ptr %30, align 4, !tbaa !22
  %32 = add i32 %31, 1
  store i32 %32, ptr %30, align 4, !tbaa !22
  br label %33

33:                                               ; preds = %29, %25, %28, %_ZL27ucnv_getSharedConverterDataPKc.exit.thread, %2, %4, %12
  %.018 = phi ptr [ %13, %12 ], [ null, %4 ], [ null, %2 ], [ null, %_ZL27ucnv_getSharedConverterDataPKc.exit.thread ], [ %21, %25 ], [ %21, %28 ], [ %19, %29 ]
  ret ptr %.018
}